; Function Attrs: nounwind uwtable
define hidden void @plpgsql_ns_additem(i32 noundef %0, i32 noundef %1, ptr noundef readonly captures(none) %2) local_unnamed_addr #1 {
  %4 = tail call i64 @strlen(ptr noundef nonnull dereferenceable(1) %2) #15
  %5 = add i64 %4, 17
  %6 = tail call ptr @palloc(i64 noundef %5) #16
  store i32 %0, ptr %6, align 8
  %7 = getelementptr inbounds nuw i8, ptr %6, i64 4
  store i32 %1, ptr %7, align 4
  %8 = load ptr, ptr @ns_top, align 8
  %9 = getelementptr inbounds nuw i8, ptr %6, i64 8
  store ptr %8, ptr %9, align 8
  %10 = getelementptr inbounds nuw i8, ptr %6, i64 16
  %11 = tail call ptr @strcpy(ptr noundef nonnull dereferenceable(1) %10, ptr noundef nonnull dereferenceable(1) %2) #16
  store ptr %6, ptr @ns_top, align 8
  ret void
}